target datalayout = "e-m:e-p270:32:32-p271:32:32-p272:64:64-i64:64-i128:128-f80:128-n8:16:32:64-S128"
target triple = "x86_64-pc-linux-gnu"

%struct.t_pbc = type { i32, i32, i32, i32, [3 x [3 x float]], [3 x float], [3 x float], [3 x float], float, i32, [12 x [3 x i32]], [12 x [3 x float]] }
%"class.gmx::BasicVector" = type { [3 x float] }
%"class.std::filesystem::__cxx11::path" = type { %"class.std::__cxx11::basic_string", %"struct.std::filesystem::__cxx11::path::_List" }
%"class.std::__cxx11::basic_string" = type { %"struct.std::__cxx11::basic_string<char>::_Alloc_hider", i64, %union.anon }
%"struct.std::__cxx11::basic_string<char>::_Alloc_hider" = type { ptr }
%union.anon = type { i64, [8 x i8] }
%"struct.std::filesystem::__cxx11::path::_List" = type { %"class.std::unique_ptr.167" }
%"class.std::unique_ptr.167" = type { %"struct.std::__uniq_ptr_data.168" }
%"struct.std::__uniq_ptr_data.168" = type { %"class.std::__uniq_ptr_impl.169" }
%"class.std::__uniq_ptr_impl.169" = type { %"class.std::tuple.170" }
%"class.std::tuple.170" = type { %"struct.std::_Tuple_impl.171" }
%"struct.std::_Tuple_impl.171" = type { %"struct.std::_Head_base.174" }
%"struct.std::_Head_base.174" = type { ptr }

@.str = private unnamed_addr constant [143 x i8] c"generated/home/dtcxzyw/WorkSpace/Projects/compilers/llvm-opt-benchmark/bench/gromacs/gromacs/src/gromacs/listed_forces/position_restraints.cpp\00", align 1
@.str.1 = private unnamed_addr constant [35 x i8] c"No such scaling method implemented\00", align 1

; Function Attrs: mustprogress nounwind uwtable
define linkonce_odr noundef float @_ZNK3gmx11BasicVectorIfEixEi(ptr noundef nonnull align 4 dereferenceable(12) %0, i32 noundef %1) #1 comdat align 2 {
  %3 = alloca ptr, align 8
  %4 = alloca i32, align 4
  store ptr %0, ptr %3, align 8, !tbaa !13
  store i32 %1, ptr %4, align 4, !tbaa !131
  %5 = load ptr, ptr %3, align 8
  %6 = getelementptr inbounds nuw %"class.gmx::BasicVector", ptr %5, i32 0, i32 0
  %7 = load i32, ptr %4, align 4, !tbaa !131
  %8 = sext i32 %7 to i64
  %9 = getelementptr inbounds [3 x float], ptr %6, i64 0, i64 %8
  %10 = load float, ptr %9, align 4, !tbaa !15
  ret float %10
}

; Function Attrs: mustprogress uwtable
define internal void @_ZN12_GLOBAL__N_19posres_dxEPKfS1_S1_RKN3gmx11BasicVectorIfEES6_fRK5t_pbc15RefCoordScalingiPfSB_SB_(ptr noundef %0, ptr noundef %1, ptr noundef %2, ptr noundef nonnull align 4 dereferenceable(12) %3, ptr noundef nonnull align 4 dereferenceable(12) %4, float noundef %5, ptr noundef nonnull align 4 dereferenceable(384) %6, i32 noundef %7, i32 noundef %8, ptr noundef %9, ptr noundef %10, ptr noundef %11) #0 personality ptr @__gxx_personality_v0 {
  %13 = alloca ptr, align 8
  %14 = alloca ptr, align 8
  %15 = alloca ptr, align 8
  %16 = alloca ptr, align 8
  %17 = alloca ptr, align 8
  %18 = alloca float, align 4
  %19 = alloca ptr, align 8
  %20 = alloca i32, align 4
  %21 = alloca i32, align 4
  %22 = alloca ptr, align 8
  %23 = alloca ptr, align 8
  %24 = alloca ptr, align 8
  %25 = alloca i32, align 4
  %26 = alloca i32, align 4
  %27 = alloca float, align 4
  %28 = alloca float, align 4
  %29 = alloca float, align 4
  %30 = alloca float, align 4
  %31 = alloca [3 x float], align 4
  %32 = alloca %"class.std::filesystem::__cxx11::path", align 8
  %33 = alloca ptr, align 8
  %34 = alloca i32, align 4
  store ptr %0, ptr %13, align 8, !tbaa !9
  store ptr %1, ptr %14, align 8, !tbaa !9
  store ptr %2, ptr %15, align 8, !tbaa !9
  store ptr %3, ptr %16, align 8, !tbaa !13
  store ptr %4, ptr %17, align 8, !tbaa !13
  store float %5, ptr %18, align 4, !tbaa !15
  store ptr %6, ptr %19, align 8, !tbaa !4
  store i32 %7, ptr %20, align 4, !tbaa !135
  store i32 %8, ptr %21, align 4, !tbaa !131
  store ptr %9, ptr %22, align 8, !tbaa !9
  store ptr %10, ptr %23, align 8, !tbaa !9
  store ptr %11, ptr %24, align 8, !tbaa !9
  call void @llvm.lifetime.start.p0(i64 4, ptr %25) #5
  call void @llvm.lifetime.start.p0(i64 4, ptr %26) #5
  call void @llvm.lifetime.start.p0(i64 4, ptr %27) #5
  call void @llvm.lifetime.start.p0(i64 4, ptr %28) #5
  call void @llvm.lifetime.start.p0(i64 4, ptr %29) #5
  call void @llvm.lifetime.start.p0(i64 4, ptr %30) #5
  store float 0.000000e+00, ptr %30, align 4, !tbaa !15
  call void @llvm.lifetime.start.p0(i64 12, ptr %31) #5
  %35 = load float, ptr %18, align 4, !tbaa !15
  %36 = fpext float %35 to double
  %37 = fsub double 1.000000e+00, %36
  %38 = fptrunc double %37 to float
  store float %38, ptr %29, align 4, !tbaa !15
  store i32 0, ptr %25, align 4, !tbaa !131
  br label %39

39:                                               ; preds = %236, %12
  %40 = load i32, ptr %25, align 4, !tbaa !131
  %41 = icmp slt i32 %40, 3
  br i1 %41, label %42, label %239

42:                                               ; preds = %39
  %43 = load ptr, ptr %14, align 8, !tbaa !9
  %44 = load i32, ptr %25, align 4, !tbaa !131
  %45 = sext i32 %44 to i64
  %46 = getelementptr inbounds float, ptr %43, i64 %45
  %47 = load float, ptr %46, align 4, !tbaa !15
  store float %47, ptr %27, align 4, !tbaa !15
  %48 = load ptr, ptr %15, align 8, !tbaa !9
  %49 = load i32, ptr %25, align 4, !tbaa !131
  %50 = sext i32 %49 to i64
  %51 = getelementptr inbounds float, ptr %48, i64 %50
  %52 = load float, ptr %51, align 4, !tbaa !15
  store float %52, ptr %28, align 4, !tbaa !15
  %53 = load i32, ptr %25, align 4, !tbaa !131
  %54 = load i32, ptr %21, align 4, !tbaa !131
  %55 = icmp slt i32 %53, %54
  br i1 %55, label %56, label %207

56:                                               ; preds = %42
  %57 = load i32, ptr %20, align 4, !tbaa !135
  switch i32 %57, label %200 [
    i32 0, label %58
    i32 1, label %76
    i32 2, label %164
  ]

58:                                               ; preds = %56
  store float 0.000000e+00, ptr %30, align 4, !tbaa !15
  %59 = load float, ptr %29, align 4, !tbaa !15
  %60 = load float, ptr %27, align 4, !tbaa !15
  %61 = load float, ptr %18, align 4, !tbaa !15
  %62 = load float, ptr %28, align 4, !tbaa !15
  %63 = fmul float %61, %62
  %64 = call float @llvm.fmuladd.f32(float %59, float %60, float %63)
  %65 = load ptr, ptr %23, align 8, !tbaa !9
  %66 = load i32, ptr %25, align 4, !tbaa !131
  %67 = sext i32 %66 to i64
  %68 = getelementptr inbounds float, ptr %65, i64 %67
  store float %64, ptr %68, align 4, !tbaa !15
  %69 = load float, ptr %28, align 4, !tbaa !15
  %70 = load float, ptr %27, align 4, !tbaa !15
  %71 = fsub float %69, %70
  %72 = load ptr, ptr %24, align 8, !tbaa !9
  %73 = load i32, ptr %25, align 4, !tbaa !131
  %74 = sext i32 %73 to i64
  %75 = getelementptr inbounds float, ptr %72, i64 %74
  store float %71, ptr %75, align 4, !tbaa !15
  br label %206

76:                                               ; preds = %56
  %77 = load ptr, ptr %19, align 8, !tbaa !4
  %78 = getelementptr inbounds nuw %struct.t_pbc, ptr %77, i32 0, i32 4
  %79 = load i32, ptr %25, align 4, !tbaa !131
  %80 = sext i32 %79 to i64
  %81 = getelementptr inbounds [3 x [3 x float]], ptr %78, i64 0, i64 %80
  %82 = load i32, ptr %25, align 4, !tbaa !131
  %83 = sext i32 %82 to i64
  %84 = getelementptr inbounds [3 x float], ptr %81, i64 0, i64 %83
  %85 = load float, ptr %84, align 4, !tbaa !15
  %86 = load float, ptr %27, align 4, !tbaa !15
  %87 = fmul float %86, %85
  store float %87, ptr %27, align 4, !tbaa !15
  %88 = load ptr, ptr %19, align 8, !tbaa !4
  %89 = getelementptr inbounds nuw %struct.t_pbc, ptr %88, i32 0, i32 4
  %90 = load i32, ptr %25, align 4, !tbaa !131
  %91 = sext i32 %90 to i64
  %92 = getelementptr inbounds [3 x [3 x float]], ptr %89, i64 0, i64 %91
  %93 = load i32, ptr %25, align 4, !tbaa !131
  %94 = sext i32 %93 to i64
  %95 = getelementptr inbounds [3 x float], ptr %92, i64 0, i64 %94
  %96 = load float, ptr %95, align 4, !tbaa !15
  %97 = load float, ptr %28, align 4, !tbaa !15
  %98 = fmul float %97, %96
  store float %98, ptr %28, align 4, !tbaa !15
  %99 = load i32, ptr %25, align 4, !tbaa !131
  %100 = add nsw i32 %99, 1
  store i32 %100, ptr %26, align 4, !tbaa !131
  br label %101

101:                                              ; preds = %143, %76
  %102 = load i32, ptr %26, align 4, !tbaa !131
  %103 = load i32, ptr %21, align 4, !tbaa !131
  %104 = icmp slt i32 %102, %103
  br i1 %104, label %105, label %108

105:                                              ; preds = %101
  %106 = load i32, ptr %26, align 4, !tbaa !131
  %107 = icmp slt i32 %106, 3
  br label %108

108:                                              ; preds = %105, %101
  %109 = phi i1 [ false, %101 ], [ %107, %105 ]
  br i1 %109, label %110, label %146

110:                                              ; preds = %108
  %111 = load ptr, ptr %14, align 8, !tbaa !9
  %112 = load i32, ptr %26, align 4, !tbaa !131
  %113 = sext i32 %112 to i64
  %114 = getelementptr inbounds float, ptr %111, i64 %113
  %115 = load float, ptr %114, align 4, !tbaa !15
  %116 = load ptr, ptr %19, align 8, !tbaa !4
  %117 = getelementptr inbounds nuw %struct.t_pbc, ptr %116, i32 0, i32 4
  %118 = load i32, ptr %26, align 4, !tbaa !131
  %119 = sext i32 %118 to i64
  %120 = getelementptr inbounds [3 x [3 x float]], ptr %117, i64 0, i64 %119
  %121 = load i32, ptr %25, align 4, !tbaa !131
  %122 = sext i32 %121 to i64
  %123 = getelementptr inbounds [3 x float], ptr %120, i64 0, i64 %122
  %124 = load float, ptr %123, align 4, !tbaa !15
  %125 = load float, ptr %27, align 4, !tbaa !15
  %126 = call float @llvm.fmuladd.f32(float %115, float %124, float %125)
  store float %126, ptr %27, align 4, !tbaa !15
  %127 = load ptr, ptr %15, align 8, !tbaa !9
  %128 = load i32, ptr %26, align 4, !tbaa !131
  %129 = sext i32 %128 to i64
  %130 = getelementptr inbounds float, ptr %127, i64 %129
  %131 = load float, ptr %130, align 4, !tbaa !15
  %132 = load ptr, ptr %19, align 8, !tbaa !4
  %133 = getelementptr inbounds nuw %struct.t_pbc, ptr %132, i32 0, i32 4
  %134 = load i32, ptr %26, align 4, !tbaa !131
  %135 = sext i32 %134 to i64
  %136 = getelementptr inbounds [3 x [3 x float]], ptr %133, i64 0, i64 %135
  %137 = load i32, ptr %25, align 4, !tbaa !131
  %138 = sext i32 %137 to i64
  %139 = getelementptr inbounds [3 x float], ptr %136, i64 0, i64 %138
  %140 = load float, ptr %139, align 4, !tbaa !15
  %141 = load float, ptr %28, align 4, !tbaa !15
  %142 = call float @llvm.fmuladd.f32(float %131, float %140, float %141)
  store float %142, ptr %28, align 4, !tbaa !15
  br label %143

143:                                              ; preds = %110
  %144 = load i32, ptr %26, align 4, !tbaa !131
  %145 = add nsw i32 %144, 1
  store i32 %145, ptr %26, align 4, !tbaa !131
  br label %101, !llvm.loop !165

146:                                              ; preds = %108
  %147 = load float, ptr %29, align 4, !tbaa !15
  %148 = load float, ptr %27, align 4, !tbaa !15
  %149 = load float, ptr %18, align 4, !tbaa !15
  %150 = load float, ptr %28, align 4, !tbaa !15
  %151 = fmul float %149, %150
  %152 = call float @llvm.fmuladd.f32(float %147, float %148, float %151)
  store float %152, ptr %30, align 4, !tbaa !15
  %153 = load ptr, ptr %23, align 8, !tbaa !9
  %154 = load i32, ptr %25, align 4, !tbaa !131
  %155 = sext i32 %154 to i64
  %156 = getelementptr inbounds float, ptr %153, i64 %155
  store float 0.000000e+00, ptr %156, align 4, !tbaa !15
  %157 = load float, ptr %28, align 4, !tbaa !15
  %158 = load float, ptr %27, align 4, !tbaa !15
  %159 = fsub float %157, %158
  %160 = load ptr, ptr %24, align 8, !tbaa !9
  %161 = load i32, ptr %25, align 4, !tbaa !131
  %162 = sext i32 %161 to i64
  %163 = getelementptr inbounds float, ptr %160, i64 %162
  store float %159, ptr %163, align 4, !tbaa !15
  br label %206

164:                                              ; preds = %56
  %165 = load float, ptr %29, align 4, !tbaa !15
  %166 = load ptr, ptr %16, align 8, !tbaa !13
  %167 = load i32, ptr %25, align 4, !tbaa !131
  %168 = call noundef float @_ZNK3gmx11BasicVectorIfEixEi(ptr noundef nonnull align 4 dereferenceable(12) %166, i32 noundef %167)
  %169 = load float, ptr %18, align 4, !tbaa !15
  %170 = load ptr, ptr %17, align 8, !tbaa !13
  %171 = load i32, ptr %25, align 4, !tbaa !131
  %172 = call noundef float @_ZNK3gmx11BasicVectorIfEixEi(ptr noundef nonnull align 4 dereferenceable(12) %170, i32 noundef %171)
  %173 = fmul float %169, %172
  %174 = call float @llvm.fmuladd.f32(float %165, float %168, float %173)
  store float %174, ptr %30, align 4, !tbaa !15
  %175 = load float, ptr %29, align 4, !tbaa !15
  %176 = load float, ptr %27, align 4, !tbaa !15
  %177 = load float, ptr %18, align 4, !tbaa !15
  %178 = load float, ptr %28, align 4, !tbaa !15
  %179 = fmul float %177, %178
  %180 = call float @llvm.fmuladd.f32(float %175, float %176, float %179)
  %181 = load ptr, ptr %23, align 8, !tbaa !9
  %182 = load i32, ptr %25, align 4, !tbaa !131
  %183 = sext i32 %182 to i64
  %184 = getelementptr inbounds float, ptr %181, i64 %183
  store float %180, ptr %184, align 4, !tbaa !15
  %185 = load ptr, ptr %17, align 8, !tbaa !13
  %186 = load i32, ptr %25, align 4, !tbaa !131
  %187 = call noundef float @_ZNK3gmx11BasicVectorIfEixEi(ptr noundef nonnull align 4 dereferenceable(12) %185, i32 noundef %186)
  %188 = load ptr, ptr %16, align 8, !tbaa !13
  %189 = load i32, ptr %25, align 4, !tbaa !131
  %190 = call noundef float @_ZNK3gmx11BasicVectorIfEixEi(ptr noundef nonnull align 4 dereferenceable(12) %188, i32 noundef %189)
  %191 = fsub float %187, %190
  %192 = load float, ptr %28, align 4, !tbaa !15
  %193 = fadd float %191, %192
  %194 = load float, ptr %27, align 4, !tbaa !15
  %195 = fsub float %193, %194
  %196 = load ptr, ptr %24, align 8, !tbaa !9
  %197 = load i32, ptr %25, align 4, !tbaa !131
  %198 = sext i32 %197 to i64
  %199 = getelementptr inbounds float, ptr %196, i64 %198
  store float %195, ptr %199, align 4, !tbaa !15
  br label %206

200:                                              ; preds = %56
  call void @llvm.lifetime.start.p0(i64 40, ptr %32) #5
  call void @_ZNSt10filesystem7__cxx114pathC2IA143_cS1_EERKT_NS1_6formatE(ptr noundef nonnull align 8 dereferenceable(40) %32, ptr noundef nonnull align 1 dereferenceable(143) @.str, i8 noundef zeroext 2)
  invoke void (i32, ptr, i32, ptr, ...) @_Z9gmx_fataliRKNSt10filesystem7__cxx114pathEiPKcz(i32 noundef 0, ptr noundef nonnull align 8 dereferenceable(40) %32, i32 noundef 130, ptr noundef @.str.1) #16
          to label %201 unwind label %202

201:                                              ; preds = %200
  unreachable

202:                                              ; preds = %200
  %203 = landingpad { ptr, i32 }
          cleanup
  %204 = extractvalue { ptr, i32 } %203, 0
  store ptr %204, ptr %33, align 8
  %205 = extractvalue { ptr, i32 } %203, 1
  store i32 %205, ptr %34, align 4
  call void @_ZNSt10filesystem7__cxx114pathD2Ev(ptr noundef nonnull align 8 dereferenceable(40) %32) #5
  call void @llvm.lifetime.end.p0(i64 40, ptr %32) #5
  call void @llvm.lifetime.end.p0(i64 12, ptr %31) #5
  call void @llvm.lifetime.end.p0(i64 4, ptr %30) #5
  call void @llvm.lifetime.end.p0(i64 4, ptr %29) #5
  call void @llvm.lifetime.end.p0(i64 4, ptr %28) #5
  call void @llvm.lifetime.end.p0(i64 4, ptr %27) #5
  call void @llvm.lifetime.end.p0(i64 4, ptr %26) #5
  call void @llvm.lifetime.end.p0(i64 4, ptr %25) #5
  br label %244

206:                                              ; preds = %164, %146, %58
  br label %225

207:                                              ; preds = %42
  %208 = load float, ptr %29, align 4, !tbaa !15
  %209 = load float, ptr %27, align 4, !tbaa !15
  %210 = load float, ptr %18, align 4, !tbaa !15
  %211 = load float, ptr %28, align 4, !tbaa !15
  %212 = fmul float %210, %211
  %213 = call float @llvm.fmuladd.f32(float %208, float %209, float %212)
  store float %213, ptr %30, align 4, !tbaa !15
  %214 = load ptr, ptr %23, align 8, !tbaa !9
  %215 = load i32, ptr %25, align 4, !tbaa !131
  %216 = sext i32 %215 to i64
  %217 = getelementptr inbounds float, ptr %214, i64 %216
  store float 0.000000e+00, ptr %217, align 4, !tbaa !15
  %218 = load float, ptr %28, align 4, !tbaa !15
  %219 = load float, ptr %27, align 4, !tbaa !15
  %220 = fsub float %218, %219
  %221 = load ptr, ptr %24, align 8, !tbaa !9
  %222 = load i32, ptr %25, align 4, !tbaa !131
  %223 = sext i32 %222 to i64
  %224 = getelementptr inbounds float, ptr %221, i64 %223
  store float %220, ptr %224, align 4, !tbaa !15
  br label %225

225:                                              ; preds = %207, %206
  %226 = load float, ptr %30, align 4, !tbaa !15
  %227 = load ptr, ptr %23, align 8, !tbaa !9
  %228 = load i32, ptr %25, align 4, !tbaa !131
  %229 = sext i32 %228 to i64
  %230 = getelementptr inbounds float, ptr %227, i64 %229
  %231 = load float, ptr %230, align 4, !tbaa !15
  %232 = fadd float %226, %231
  %233 = load i32, ptr %25, align 4, !tbaa !131
  %234 = sext i32 %233 to i64
  %235 = getelementptr inbounds [3 x float], ptr %31, i64 0, i64 %234
  store float %232, ptr %235, align 4, !tbaa !15
  br label %236

236:                                              ; preds = %225
  %237 = load i32, ptr %25, align 4, !tbaa !131
  %238 = add nsw i32 %237, 1
  store i32 %238, ptr %25, align 4, !tbaa !131
  br label %39, !llvm.loop !166

239:                                              ; preds = %39
  %240 = load ptr, ptr %19, align 8, !tbaa !4
  %241 = load ptr, ptr %13, align 8, !tbaa !9
  %242 = getelementptr inbounds [3 x float], ptr %31, i64 0, i64 0
  %243 = load ptr, ptr %22, align 8, !tbaa !9
  call void @_Z6pbc_dxPK5t_pbcPKfS3_Pf(ptr noundef %240, ptr noundef %241, ptr noundef %242, ptr noundef %243)
  call void @llvm.lifetime.end.p0(i64 12, ptr %31) #5
  call void @llvm.lifetime.end.p0(i64 4, ptr %30) #5
  call void @llvm.lifetime.end.p0(i64 4, ptr %29) #5
  call void @llvm.lifetime.end.p0(i64 4, ptr %28) #5
  call void @llvm.lifetime.end.p0(i64 4, ptr %27) #5
  call void @llvm.lifetime.end.p0(i64 4, ptr %26) #5
  call void @llvm.lifetime.end.p0(i64 4, ptr %25) #5
  ret void

244:                                              ; preds = %202
  %245 = load ptr, ptr %33, align 8
  %246 = load i32, ptr %34, align 4
  %247 = insertvalue { ptr, i32 } poison, ptr %245, 0
  %248 = insertvalue { ptr, i32 } %247, i32 %246, 1
  resume { ptr, i32 } %248
}