; Function Attrs: mustprogress uwtable
define internal fastcc void @_ZN12_GLOBAL__N_19posres_dxEPKfS1_S1_RKN3gmx11BasicVectorIfEES6_fRK5t_pbc15RefCoordScalingiPfSB_SB_(ptr noundef %0, ptr noundef readonly captures(none) %1, ptr noundef readonly captures(none) %2, ptr noundef nonnull readonly align 4 captures(none) dereferenceable(12) %3, ptr noundef nonnull readonly align 4 captures(none) dereferenceable(12) %4, float noundef %5, ptr noundef nonnull align 4 dereferenceable(384) %6, i32 noundef %7, i32 noundef %8, ptr noundef nonnull %9, ptr noundef nonnull captures(none) %10, ptr noundef nonnull writeonly captures(none) %11) unnamed_addr #0 personality ptr @__gxx_personality_v0 {
  %13 = alloca [3 x float], align 4
  %14 = alloca %"class.std::filesystem::__cxx11::path", align 8
  call void @llvm.lifetime.start.p0(i64 12, ptr nonnull %13) #4
  %15 = fsub float 1.000000e+00, %5
  %16 = getelementptr inbounds nuw i8, ptr %6, i64 16
  %17 = sext i32 %8 to i64
  %18 = tail call i64 @llvm.smin.i64(i64 %17, i64 3)
  %invariant.smin115 = add nsw i64 %18, -1
  %19 = tail call i64 @llvm.smin.i64(i64 %17, i64 3)
  %invariant.smin = add nsw i64 %19, -1
  br label %20

20:                                               ; preds = %12, %75
  %indvars.iv108 = phi i64 [ 0, %12 ], [ %indvars.iv.next109, %75 ]
  %indvars.iv = phi i64 [ 1, %12 ], [ %indvars.iv.next, %75 ]
  %21 = getelementptr inbounds nuw float, ptr %1, i64 %indvars.iv108
  %22 = load float, ptr %21, align 4, !tbaa !10
  %23 = getelementptr inbounds nuw float, ptr %2, i64 %indvars.iv108
  %24 = load float, ptr %23, align 4, !tbaa !10
  %25 = icmp slt i64 %indvars.iv108, %17
  br i1 %25, label %26, label %70

26:                                               ; preds = %20
  switch i32 %7, label %66 [
    i32 0, label %27
    i32 1, label %32
    i32 2, label %51
  ]

27:                                               ; preds = %26
  %28 = fmul float %5, %24
  %29 = tail call float @llvm.fmuladd.f32(float %15, float %22, float %28)
  %30 = getelementptr inbounds nuw float, ptr %10, i64 %indvars.iv108
  store float %29, ptr %30, align 4, !tbaa !10
  %31 = fsub float %24, %22
  br label %75

32:                                               ; preds = %26
  %33 = getelementptr inbounds nuw [3 x [3 x float]], ptr %16, i64 0, i64 %indvars.iv108, i64 %indvars.iv108
  %34 = load float, ptr %33, align 4, !tbaa !10
  %35 = fmul float %22, %34
  %36 = fmul float %24, %34
  %37 = icmp slt i64 %indvars.iv108, %invariant.smin115
  br i1 %37, label %.lr.ph, label %._crit_edge

.lr.ph:                                           ; preds = %32, %.lr.ph
  %indvars.iv105 = phi i64 [ 2, %.lr.ph ], [ %indvars.iv, %32 ]
  %.095100 = phi float [ %42, %.lr.ph ], [ %35, %32 ]
  %.09699 = phi float [ %45, %.lr.ph ], [ %36, %32 ]
  %38 = getelementptr inbounds nuw float, ptr %1, i64 %indvars.iv105
  %39 = load float, ptr %38, align 4, !tbaa !10
  %40 = getelementptr inbounds nuw [3 x [3 x float]], ptr %16, i64 0, i64 %indvars.iv105, i64 %indvars.iv108
  %41 = load float, ptr %40, align 4, !tbaa !10
  %42 = tail call float @llvm.fmuladd.f32(float %39, float %41, float %.095100)
  %43 = getelementptr inbounds nuw float, ptr %2, i64 %indvars.iv105
  %44 = load float, ptr %43, align 4, !tbaa !10
  %45 = tail call float @llvm.fmuladd.f32(float %44, float %41, float %.09699)
  %46 = icmp slt i64 %indvars.iv105, %invariant.smin
  br i1 %46, label %.lr.ph, label %._crit_edge, !llvm.loop !143

._crit_edge:                                      ; preds = %.lr.ph, %32
  %.096.lcssa = phi float [ %36, %32 ], [ %45, %.lr.ph ]
  %.095.lcssa = phi float [ %35, %32 ], [ %42, %.lr.ph ]
  %47 = fmul float %5, %.096.lcssa
  %48 = tail call float @llvm.fmuladd.f32(float %15, float %.095.lcssa, float %47)
  %49 = getelementptr inbounds nuw float, ptr %10, i64 %indvars.iv108
  store float 0.000000e+00, ptr %49, align 4, !tbaa !10
  %50 = fsub float %.096.lcssa, %.095.lcssa
  br label %75

51:                                               ; preds = %26
  %52 = getelementptr inbounds nuw [3 x float], ptr %3, i64 0, i64 %indvars.iv108
  %53 = load float, ptr %52, align 4, !tbaa !10
  %54 = getelementptr inbounds nuw [3 x float], ptr %4, i64 0, i64 %indvars.iv108
  %55 = load float, ptr %54, align 4, !tbaa !10
  %56 = fmul float %5, %55
  %57 = tail call float @llvm.fmuladd.f32(float %15, float %53, float %56)
  %58 = fmul float %5, %24
  %59 = tail call float @llvm.fmuladd.f32(float %15, float %22, float %58)
  %60 = getelementptr inbounds nuw float, ptr %10, i64 %indvars.iv108
  store float %59, ptr %60, align 4, !tbaa !10
  %61 = load float, ptr %54, align 4, !tbaa !10
  %62 = load float, ptr %52, align 4, !tbaa !10
  %63 = fsub float %61, %62
  %64 = fadd float %24, %63
  %65 = fsub float %64, %22
  br label %75

66:                                               ; preds = %26
  call void @llvm.lifetime.start.p0(i64 40, ptr nonnull %14) #4
  call void @_ZNSt10filesystem7__cxx114pathC2IA143_cS1_EERKT_NS1_6formatE(ptr noundef nonnull align 8 dereferenceable(40) %14, ptr noundef nonnull align 1 dereferenceable(143) @.str, i8 noundef zeroext 2)
  invoke void (i32, ptr, i32, ptr, ...) @_Z9gmx_fataliRKNSt10filesystem7__cxx114pathEiPKcz(i32 noundef 0, ptr noundef nonnull align 8 dereferenceable(40) %14, i32 noundef 130, ptr noundef nonnull @.str.1) #15
          to label %67 unwind label %68

67:                                               ; preds = %66
  unreachable

68:                                               ; preds = %66
  %69 = landingpad { ptr, i32 }
          cleanup
  call void @_ZNSt10filesystem7__cxx114pathD2Ev(ptr noundef nonnull align 8 dereferenceable(40) %14) #4
  call void @llvm.lifetime.end.p0(i64 40, ptr nonnull %14) #4
  call void @llvm.lifetime.end.p0(i64 12, ptr nonnull %13) #4
  resume { ptr, i32 } %69

70:                                               ; preds = %20
  %71 = fmul float %5, %24
  %72 = tail call float @llvm.fmuladd.f32(float %15, float %22, float %71)
  %73 = getelementptr inbounds nuw float, ptr %10, i64 %indvars.iv108
  store float 0.000000e+00, ptr %73, align 4, !tbaa !10
  %74 = fsub float %24, %22
  br label %75

75:                                               ; preds = %27, %._crit_edge, %51, %70
  %.sink = phi float [ %31, %27 ], [ %50, %._crit_edge ], [ %65, %51 ], [ %74, %70 ]
  %.094 = phi float [ 0.000000e+00, %27 ], [ %48, %._crit_edge ], [ %57, %51 ], [ %72, %70 ]
  %76 = getelementptr inbounds nuw float, ptr %11, i64 %indvars.iv108
  store float %.sink, ptr %76, align 4, !tbaa !10
  %77 = getelementptr inbounds nuw float, ptr %10, i64 %indvars.iv108
  %78 = load float, ptr %77, align 4, !tbaa !10
  %79 = fadd float %.094, %78
  %80 = getelementptr inbounds nuw [3 x float], ptr %13, i64 0, i64 %indvars.iv108
  store float %79, ptr %80, align 4, !tbaa !10
  %indvars.iv.next109 = add nuw nsw i64 %indvars.iv108, 1
  %indvars.iv.next = add nuw nsw i64 %indvars.iv, 1
  %exitcond.not = icmp eq i64 %indvars.iv.next109, 3
  br i1 %exitcond.not, label %81, label %20, !llvm.loop !144

81:                                               ; preds = %75
  call void @_Z6pbc_dxPK5t_pbcPKfS3_Pf(ptr noundef nonnull %6, ptr noundef %0, ptr noundef nonnull %13, ptr noundef nonnull %9)
  call void @llvm.lifetime.end.p0(i64 12, ptr nonnull %13) #4
  ret void
}